target datalayout = "e-m:e-p270:32:32-p271:32:32-p272:64:64-i64:64-i128:128-f80:128-n8:16:32:64-S128"
target triple = "x86_64-unknown-linux-gnu"

%"class.hermes::vm::CompressedPointer" = type { %"class.hermes::vm::BasedPointer" }
%"class.hermes::vm::BasedPointer" = type { i32 }
%"class.hermes::vm::HadesGC::OldGen" = type { ptr, %"class.std::deque", %"class.hermes::ExponentialMovingAverage", i64, i64, %"class.hermes::BitArray", %"class.std::deque.4", %"struct.std::array.10", %"struct.hermes::vm::HadesGC::OldGen::SweepIterator" }
%"class.std::deque" = type { %"class.std::_Deque_base" }
%"class.std::_Deque_base" = type { %"struct.std::_Deque_base<hermes::vm::HadesGC::HeapSegment, std::allocator<hermes::vm::HadesGC::HeapSegment>>::_Deque_impl" }
%"struct.std::_Deque_base<hermes::vm::HadesGC::HeapSegment, std::allocator<hermes::vm::HadesGC::HeapSegment>>::_Deque_impl" = type { %"struct.std::_Deque_base<hermes::vm::HadesGC::HeapSegment, std::allocator<hermes::vm::HadesGC::HeapSegment>>::_Deque_impl_data" }
%"struct.std::_Deque_base<hermes::vm::HadesGC::HeapSegment, std::allocator<hermes::vm::HadesGC::HeapSegment>>::_Deque_impl_data" = type { ptr, i64, %"struct.std::_Deque_iterator", %"struct.std::_Deque_iterator" }
%"struct.std::_Deque_iterator" = type { ptr, ptr, ptr, ptr }
%"class.hermes::ExponentialMovingAverage" = type { double, double }
%"class.hermes::BitArray" = type { %"struct.std::array" }
%"struct.std::array" = type { [5 x i64] }
%"class.std::deque.4" = type { %"class.std::_Deque_base.5" }
%"class.std::_Deque_base.5" = type { %"struct.std::_Deque_base<std::array<hermes::vm::HadesGC::OldGen::SegmentBucket, 267>, std::allocator<std::array<hermes::vm::HadesGC::OldGen::SegmentBucket, 267>>>::_Deque_impl" }
%"struct.std::_Deque_base<std::array<hermes::vm::HadesGC::OldGen::SegmentBucket, 267>, std::allocator<std::array<hermes::vm::HadesGC::OldGen::SegmentBucket, 267>>>::_Deque_impl" = type { %"struct.std::_Deque_base<std::array<hermes::vm::HadesGC::OldGen::SegmentBucket, 267>, std::allocator<std::array<hermes::vm::HadesGC::OldGen::SegmentBucket, 267>>>::_Deque_impl_data" }
%"struct.std::_Deque_base<std::array<hermes::vm::HadesGC::OldGen::SegmentBucket, 267>, std::allocator<std::array<hermes::vm::HadesGC::OldGen::SegmentBucket, 267>>>::_Deque_impl_data" = type { ptr, i64, %"struct.std::_Deque_iterator.9", %"struct.std::_Deque_iterator.9" }
%"struct.std::_Deque_iterator.9" = type { ptr, ptr, ptr, ptr }
%"struct.std::array.10" = type { [267 x %"struct.hermes::vm::HadesGC::OldGen::SegmentBucket"] }
%"struct.hermes::vm::HadesGC::OldGen::SegmentBucket" = type <{ ptr, ptr, %"class.hermes::vm::AssignableCompressedPointer", [4 x i8] }>
%"class.hermes::vm::AssignableCompressedPointer" = type { %"class.hermes::vm::CompressedPointer" }
%"struct.hermes::vm::HadesGC::OldGen::SweepIterator" = type { i64, i64, i64 }
%"class.hermes::vm::GCExecTrace" = type { i8 }
%"class.std::shared_ptr" = type { %"class.std::__shared_ptr" }
%"class.std::__shared_ptr" = type { ptr, %"class.std::__shared_count" }
%"class.std::__shared_count" = type { ptr }
%"class.std::function" = type { %"class.std::_Function_base", ptr }
%"class.std::_Function_base" = type { %"union.std::_Any_data", ptr }
%"union.std::_Any_data" = type { %"union.std::_Nocopy_types" }
%"union.std::_Nocopy_types" = type { { i64, i64 } }
%"class.std::vector" = type { %"struct.std::_Vector_base" }
%"struct.std::_Vector_base" = type { %"struct.std::_Vector_base<hermes::vm::GCAnalyticsEvent, std::allocator<hermes::vm::GCAnalyticsEvent>>::_Vector_impl" }
%"struct.std::_Vector_base<hermes::vm::GCAnalyticsEvent, std::allocator<hermes::vm::GCAnalyticsEvent>>::_Vector_impl" = type { %"struct.std::_Vector_base<hermes::vm::GCAnalyticsEvent, std::allocator<hermes::vm::GCAnalyticsEvent>>::_Vector_impl_data" }
%"struct.std::_Vector_base<hermes::vm::GCAnalyticsEvent, std::allocator<hermes::vm::GCAnalyticsEvent>>::_Vector_impl_data" = type { ptr, ptr, ptr }
%"class.std::chrono::time_point" = type { %"class.std::chrono::duration" }
%"class.std::chrono::duration" = type { i64 }
%"class.std::chrono::duration.14" = type { i64 }
%"struct.hermes::vm::GCBase::CumulativeHeapStats" = type { i32, %"class.hermes::StatsAccumulator", %"class.hermes::StatsAccumulator", i32, %"class.hermes::StatsAccumulator.15", %"class.hermes::StatsAccumulator.15" }
%"class.hermes::StatsAccumulator" = type { i32, double, double, double, double }
%"class.hermes::StatsAccumulator.15" = type { i32, i64, i32, i32, double }
%"class.std::__cxx11::basic_string" = type { %"struct.std::__cxx11::basic_string<char>::_Alloc_hider", i64, %union.anon.19 }
%"struct.std::__cxx11::basic_string<char>::_Alloc_hider" = type { ptr }
%union.anon.19 = type { i64, [8 x i8] }
%"class.std::deque.20" = type { %"class.std::_Deque_base.21" }
%"class.std::_Deque_base.21" = type { %"struct.std::_Deque_base<hermes::vm::WeakRefSlot, std::allocator<hermes::vm::WeakRefSlot>>::_Deque_impl" }
%"struct.std::_Deque_base<hermes::vm::WeakRefSlot, std::allocator<hermes::vm::WeakRefSlot>>::_Deque_impl" = type { %"struct.std::_Deque_base<hermes::vm::WeakRefSlot, std::allocator<hermes::vm::WeakRefSlot>>::_Deque_impl_data" }
%"struct.std::_Deque_base<hermes::vm::WeakRefSlot, std::allocator<hermes::vm::WeakRefSlot>>::_Deque_impl_data" = type { ptr, i64, %"struct.std::_Deque_iterator.25", %"struct.std::_Deque_iterator.25" }
%"struct.std::_Deque_iterator.25" = type { ptr, ptr, ptr, ptr }
%"class.std::recursive_mutex" = type { %"class.std::__recursive_mutex_base" }
%"class.std::__recursive_mutex_base" = type { %union.pthread_mutex_t }
%union.pthread_mutex_t = type { %struct.__pthread_mutex_s }
%struct.__pthread_mutex_s = type { i32, i32, i32, i32, i32, i16, i16, %struct.__pthread_internal_list }
%struct.__pthread_internal_list = type { ptr, ptr }
%"class.hermes::vm::GCBase::IDTracker" = type { %"class.std::recursive_mutex", i32, [4 x i8], %"class.llvh::DenseMap", %"class.llvh::DenseMap", %"class.llvh::DenseMap.26", %"class.llvh::DenseMap.29", %"class.llvh::DenseMap", %"class.llvh::DenseMap.32" }
%"class.llvh::DenseMap.26" = type <{ ptr, i32, i32, i32, [4 x i8] }>
%"class.llvh::DenseMap.29" = type <{ ptr, i32, i32, i32, [4 x i8] }>
%"class.llvh::DenseMap" = type <{ ptr, i32, i32, i32, [4 x i8] }>
%"class.llvh::DenseMap.32" = type <{ ptr, i32, i32, i32, [4 x i8] }>
%"class.std::function.35" = type { %"class.std::_Function_base", ptr }
%"class.hermes::vm::AlignedHeapSegment::Contents" = type <{ %"class.hermes::vm::CardTable", %"class.hermes::vm::MarkBitArrayNC", [4096 x i8], [1 x i8], [7 x i8] }>
%"class.hermes::vm::CardTable" = type { %"struct.std::array.78", [8192 x i8] }
%"struct.std::array.78" = type { [8192 x %"struct.std::atomic.79"] }
%"struct.std::atomic.79" = type { i8 }
%"class.hermes::vm::MarkBitArrayNC" = type { %"class.hermes::BitArray.97" }
%"class.hermes::BitArray.97" = type { %"struct.std::array.98" }
%"struct.std::array.98" = type { [8192 x i64] }
%"class.hermes::vm::HadesGC" = type { %"class.hermes::vm::GCBase.base", i64, i64, %"class.std::vector.38", %"class.std::shared_ptr.43", %"class.hermes::vm::HadesGC::HeapSegment", %"class.hermes::vm::AssignableCompressedPointer", %"class.std::vector.46", double, %"class.hermes::vm::HadesGC::OldGen", %"class.std::recursive_mutex", %"struct.std::atomic", %"class.std::_V2::condition_variable_any", i8, i8, %"class.std::unique_ptr", %"class.std::unique_ptr.56", %"class.std::future", i8, i8, i8, double, %"class.hermes::ExponentialMovingAverage", %"class.std::unique_ptr.67", %"class.std::unique_ptr.67", %"struct.hermes::vm::GCBase::CumulativeHeapStats", %"struct.hermes::vm::GCBase::CumulativeHeapStats", %"class.hermes::ExponentialMovingAverage", i64, %"struct.hermes::vm::HadesGC::CompacteeState", i64, %"struct.hermes::vm::HadesGC::NativeIDs" }
%"class.hermes::vm::GCBase.base" = type <{ ptr, i32, [4 x i8], i64, %"class.hermes::vm::GCExecTrace", [7 x i8], ptr, ptr, %"class.std::shared_ptr", i32, [4 x i8], %"class.std::function", %"class.std::vector", i8, i8, i8, i8, [4 x i8], %"class.std::chrono::time_point", %"class.std::chrono::duration.14", i64, i64, %"struct.hermes::vm::GCBase::CumulativeHeapStats", %"class.std::__cxx11::basic_string", %"class.std::deque.20", ptr, %"class.std::recursive_mutex", %"class.hermes::vm::GCBase::IDTracker", [3 x i64], %"class.std::function.35", i32, i8 }>
%"class.std::vector.38" = type { %"struct.std::_Vector_base.39" }
%"struct.std::_Vector_base.39" = type { %"struct.std::_Vector_base<unsigned long, std::allocator<unsigned long>>::_Vector_impl" }
%"struct.std::_Vector_base<unsigned long, std::allocator<unsigned long>>::_Vector_impl" = type { %"struct.std::_Vector_base<unsigned long, std::allocator<unsigned long>>::_Vector_impl_data" }
%"struct.std::_Vector_base<unsigned long, std::allocator<unsigned long>>::_Vector_impl_data" = type { ptr, ptr, ptr }
%"class.std::shared_ptr.43" = type { %"class.std::__shared_ptr.44" }
%"class.std::__shared_ptr.44" = type { ptr, %"class.std::__shared_count" }
%"class.hermes::vm::HadesGC::HeapSegment" = type { %"class.hermes::vm::AlignedHeapSegment" }
%"class.hermes::vm::AlignedHeapSegment" = type { %"struct.hermes::vm::AlignedStorage", ptr, ptr }
%"struct.hermes::vm::AlignedStorage" = type { ptr, ptr }
%"class.std::vector.46" = type { %"struct.std::_Vector_base.47" }
%"struct.std::_Vector_base.47" = type { %"struct.std::_Vector_base<hermes::vm::GCCell *, std::allocator<hermes::vm::GCCell *>>::_Vector_impl" }
%"struct.std::_Vector_base<hermes::vm::GCCell *, std::allocator<hermes::vm::GCCell *>>::_Vector_impl" = type { %"struct.std::_Vector_base<hermes::vm::GCCell *, std::allocator<hermes::vm::GCCell *>>::_Vector_impl_data" }
%"struct.std::_Vector_base<hermes::vm::GCCell *, std::allocator<hermes::vm::GCCell *>>::_Vector_impl_data" = type { ptr, ptr, ptr }
%"struct.std::atomic" = type { %"struct.std::__atomic_base" }
%"struct.std::__atomic_base" = type { i8 }
%"class.std::_V2::condition_variable_any" = type { %"class.std::condition_variable", %"class.std::shared_ptr.51" }
%"class.std::condition_variable" = type { %"class.std::__condvar" }
%"class.std::__condvar" = type { %union.pthread_cond_t }
%union.pthread_cond_t = type { %struct.__pthread_cond_s }
%struct.__pthread_cond_s = type { %union.__atomic_wide_counter, %union.__atomic_wide_counter, [2 x i32], [2 x i32], i32, i32, [2 x i32] }
%union.__atomic_wide_counter = type { i64 }
%"class.std::shared_ptr.51" = type { %"class.std::__shared_ptr.52" }
%"class.std::__shared_ptr.52" = type { ptr, %"class.std::__shared_count" }
%"class.std::unique_ptr" = type { %"struct.std::__uniq_ptr_data" }
%"struct.std::__uniq_ptr_data" = type { %"class.std::__uniq_ptr_impl" }
%"class.std::__uniq_ptr_impl" = type { %"class.std::tuple" }
%"class.std::tuple" = type { %"struct.std::_Tuple_impl" }
%"struct.std::_Tuple_impl" = type { %"struct.std::_Head_base.55" }
%"struct.std::_Head_base.55" = type { ptr }
%"class.std::unique_ptr.56" = type { %"struct.std::__uniq_ptr_data.57" }
%"struct.std::__uniq_ptr_data.57" = type { %"class.std::__uniq_ptr_impl.58" }
%"class.std::__uniq_ptr_impl.58" = type { %"class.std::tuple.59" }
%"class.std::tuple.59" = type { %"struct.std::_Tuple_impl.60" }
%"struct.std::_Tuple_impl.60" = type { %"struct.std::_Head_base.63" }
%"struct.std::_Head_base.63" = type { ptr }
%"class.std::future" = type { %"class.std::__basic_future" }
%"class.std::__basic_future" = type { %"class.std::shared_ptr.64" }
%"class.std::shared_ptr.64" = type { %"class.std::__shared_ptr.65" }
%"class.std::__shared_ptr.65" = type { ptr, %"class.std::__shared_count" }
%"class.std::unique_ptr.67" = type { %"struct.std::__uniq_ptr_data.68" }
%"struct.std::__uniq_ptr_data.68" = type { %"class.std::__uniq_ptr_impl.69" }
%"class.std::__uniq_ptr_impl.69" = type { %"class.std::tuple.70" }
%"class.std::tuple.70" = type { %"struct.std::_Tuple_impl.71" }
%"struct.std::_Tuple_impl.71" = type { %"struct.std::_Head_base.74" }
%"struct.std::_Head_base.74" = type { ptr }
%"struct.hermes::vm::HadesGC::CompacteeState" = type { ptr, %"class.hermes::vm::AssignableCompressedPointer", ptr, %"class.hermes::vm::AssignableCompressedPointer", %"class.std::shared_ptr.75" }
%"class.std::shared_ptr.75" = type { %"class.std::__shared_ptr.76" }
%"class.std::__shared_ptr.76" = type { ptr, %"class.std::__shared_count" }
%"struct.hermes::vm::HadesGC::NativeIDs" = type { i32, i32 }

; Function Attrs: mustprogress nounwind uwtable
define linkonce_odr hidden noundef ptr @_ZNK6hermes2vm14AlignedStorage6lowLimEv(ptr noundef nonnull align 8 dereferenceable(16) %this) #0 comdat align 2 {
entry:
  %this.addr = alloca ptr, align 8
  store ptr %this, ptr %this.addr, align 8
  %this1 = load ptr, ptr %this.addr, align 8
  %lowLim_ = getelementptr inbounds %"struct.hermes::vm::AlignedStorage", ptr %this1, i32 0, i32 0
  %0 = load ptr, ptr %lowLim_, align 8
  ret ptr %0
}

; Function Attrs: mustprogress nounwind uwtable
define linkonce_odr hidden noundef ptr @_ZN6hermes2vm18AlignedHeapSegment8contentsEPv(ptr noundef %lowLim) #0 comdat align 2 {
entry:
  %lowLim.addr = alloca ptr, align 8
  store ptr %lowLim, ptr %lowLim.addr, align 8
  %0 = load ptr, ptr %lowLim.addr, align 8
  ret ptr %0
}

; Function Attrs: mustprogress nounwind uwtable
define linkonce_odr hidden noundef ptr @_ZNK6hermes2vm18AlignedHeapSegment6lowLimEv(ptr noundef nonnull align 8 dereferenceable(32) %this) #0 comdat align 2 {
entry:
  %this.addr = alloca ptr, align 8
  store ptr %this, ptr %this.addr, align 8
  %this1 = load ptr, ptr %this.addr, align 8
  %storage_ = getelementptr inbounds %"class.hermes::vm::AlignedHeapSegment", ptr %this1, i32 0, i32 0
  %call = call noundef ptr @_ZNK6hermes2vm14AlignedStorage6lowLimEv(ptr noundef nonnull align 8 dereferenceable(16) %storage_)
  ret ptr %call
}

; Function Attrs: mustprogress nounwind uwtable
define linkonce_odr hidden noundef ptr @_ZNK6hermes2vm18AlignedHeapSegment8contentsEv(ptr noundef nonnull align 8 dereferenceable(32) %this) #0 comdat align 2 {
entry:
  %this.addr = alloca ptr, align 8
  store ptr %this, ptr %this.addr, align 8
  %this1 = load ptr, ptr %this.addr, align 8
  %call = call noundef ptr @_ZNK6hermes2vm18AlignedHeapSegment6lowLimEv(ptr noundef nonnull align 8 dereferenceable(32) %this1)
  %call2 = call noundef ptr @_ZN6hermes2vm18AlignedHeapSegment8contentsEPv(ptr noundef %call)
  ret ptr %call2
}

; Function Attrs: mustprogress nounwind uwtable
define linkonce_odr hidden noundef ptr @_ZNK6hermes2vm18AlignedHeapSegment5startEv(ptr noundef nonnull align 8 dereferenceable(32) %this) #0 comdat align 2 {
entry:
  %this.addr = alloca ptr, align 8
  store ptr %this, ptr %this.addr, align 8
  %this1 = load ptr, ptr %this.addr, align 8
  %call = call noundef ptr @_ZNK6hermes2vm18AlignedHeapSegment8contentsEv(ptr noundef nonnull align 8 dereferenceable(32) %this1)
  %allocRegion_ = getelementptr inbounds %"class.hermes::vm::AlignedHeapSegment::Contents", ptr %call, i32 0, i32 3
  %arraydecay = getelementptr inbounds [1 x i8], ptr %allocRegion_, i64 0, i64 0
  ret ptr %arraydecay
}

; Function Attrs: mustprogress nounwind uwtable
define linkonce_odr hidden noundef ptr @_ZNK6hermes2vm18AlignedHeapSegment5levelEv(ptr noundef nonnull align 8 dereferenceable(32) %this) #0 comdat align 2 {
entry:
  %this.addr = alloca ptr, align 8
  store ptr %this, ptr %this.addr, align 8
  %this1 = load ptr, ptr %this.addr, align 8
  %level_ = getelementptr inbounds %"class.hermes::vm::AlignedHeapSegment", ptr %this1, i32 0, i32 1
  %0 = load ptr, ptr %level_, align 8
  ret ptr %0
}

; Function Attrs: mustprogress nounwind uwtable
define linkonce_odr hidden noundef zeroext i1 @_ZNK6hermes2vm14AlignedStoragecvbEv(ptr noundef nonnull align 8 dereferenceable(16) %this) #0 comdat align 2 {
entry:
  %this.addr = alloca ptr, align 8
  store ptr %this, ptr %this.addr, align 8
  %this1 = load ptr, ptr %this.addr, align 8
  %lowLim_ = getelementptr inbounds %"struct.hermes::vm::AlignedStorage", ptr %this1, i32 0, i32 0
  %0 = load ptr, ptr %lowLim_, align 8
  %tobool = icmp ne ptr %0, null
  ret i1 %tobool
}

; Function Attrs: mustprogress nounwind uwtable
define hidden noundef i64 @_ZNK6hermes2vm7HadesGC6OldGen14allocatedBytesEv(ptr noundef nonnull align 8 dereferenceable(6672) %this) #0 align 2 {
entry:
  %this.addr = alloca ptr, align 8
  store ptr %this, ptr %this.addr, align 8
  %this1 = load ptr, ptr %this.addr, align 8
  %allocatedBytes_ = getelementptr inbounds %"class.hermes::vm::HadesGC::OldGen", ptr %this1, i32 0, i32 3
  %0 = load i64, ptr %allocatedBytes_, align 8
  ret i64 %0
}

; Function Attrs: mustprogress nounwind uwtable
define linkonce_odr hidden noundef i64 @_ZNK6hermes2vm18AlignedHeapSegment4usedEv(ptr noundef nonnull align 8 dereferenceable(32) %this) #0 comdat align 2 {
entry:
  %this.addr = alloca ptr, align 8
  store ptr %this, ptr %this.addr, align 8
  %this1 = load ptr, ptr %this.addr, align 8
  %call = call noundef ptr @_ZNK6hermes2vm18AlignedHeapSegment5levelEv(ptr noundef nonnull align 8 dereferenceable(32) %this1)
  %call2 = call noundef ptr @_ZNK6hermes2vm18AlignedHeapSegment5startEv(ptr noundef nonnull align 8 dereferenceable(32) %this1)
  %sub.ptr.lhs.cast = ptrtoint ptr %call to i64
  %sub.ptr.rhs.cast = ptrtoint ptr %call2 to i64
  %sub.ptr.sub = sub i64 %sub.ptr.lhs.cast, %sub.ptr.rhs.cast
  ret i64 %sub.ptr.sub
}

; Function Attrs: mustprogress nounwind uwtable
define linkonce_odr hidden noundef zeroext i1 @_ZNK6hermes2vm18AlignedHeapSegmentcvbEv(ptr noundef nonnull align 8 dereferenceable(32) %this) #0 comdat align 2 {
entry:
  %this.addr = alloca ptr, align 8
  store ptr %this, ptr %this.addr, align 8
  %this1 = load ptr, ptr %this.addr, align 8
  %storage_ = getelementptr inbounds %"class.hermes::vm::AlignedHeapSegment", ptr %this1, i32 0, i32 0
  %call = call noundef zeroext i1 @_ZNK6hermes2vm14AlignedStoragecvbEv(ptr noundef nonnull align 8 dereferenceable(16) %storage_)
  ret i1 %call
}

; Function Attrs: mustprogress nounwind uwtable
define hidden noundef i64 @_ZNK6hermes2vm7HadesGC14allocatedBytesEv(ptr noundef nonnull align 8 dereferenceable(8152) %this) #0 align 2 {
entry:
  %this.addr = alloca ptr, align 8
  store ptr %this, ptr %this.addr, align 8
  %this1 = load ptr, ptr %this.addr, align 8
  %youngGen_ = getelementptr inbounds %"class.hermes::vm::HadesGC", ptr %this1, i32 0, i32 5
  %call = call noundef zeroext i1 @_ZNK6hermes2vm18AlignedHeapSegmentcvbEv(ptr noundef nonnull align 8 dereferenceable(32) %youngGen_)
  br i1 %call, label %cond.true, label %cond.false

cond.true:                                        ; preds = %entry
  %youngGen_2 = getelementptr inbounds %"class.hermes::vm::HadesGC", ptr %this1, i32 0, i32 5
  %call3 = call noundef i64 @_ZNK6hermes2vm18AlignedHeapSegment4usedEv(ptr noundef nonnull align 8 dereferenceable(32) %youngGen_2)
  br label %cond.end

cond.false:                                       ; preds = %entry
  br label %cond.end

cond.end:                                         ; preds = %cond.false, %cond.true
  %cond = phi i64 [ %call3, %cond.true ], [ 0, %cond.false ]
  %oldGen_ = getelementptr inbounds %"class.hermes::vm::HadesGC", ptr %this1, i32 0, i32 9
  %call4 = call noundef i64 @_ZNK6hermes2vm7HadesGC6OldGen14allocatedBytesEv(ptr noundef nonnull align 8 dereferenceable(6672) %oldGen_)
  %add = add i64 %cond, %call4
  ret i64 %add
}