; Function Attrs: mustprogress nofree norecurse nosync nounwind willreturn memory(argmem: read) uwtable
define hidden noundef i64 @_ZNK6hermes2vm7HadesGC14allocatedBytesEv(ptr nocapture noundef nonnull readonly align 8 dereferenceable(8152) %this) local_unnamed_addr #8 align 2 {
entry:
  %youngGen_ = getelementptr inbounds i8, ptr %this, i64 800
  %0 = load ptr, ptr %youngGen_, align 8
  %tobool.i.i.not = icmp eq ptr %0, null
  %level_.i.i = getelementptr inbounds i8, ptr %this, i64 816
  %1 = load ptr, ptr %level_.i.i, align 8
  %allocRegion_.i.i = getelementptr inbounds i8, ptr %0, i64 86016
  %sub.ptr.lhs.cast.i = ptrtoint ptr %1 to i64
  %sub.ptr.rhs.cast.i = ptrtoint ptr %allocRegion_.i.i to i64
  %sub.ptr.sub.i = sub i64 %sub.ptr.lhs.cast.i, %sub.ptr.rhs.cast.i
  %cond = select i1 %tobool.i.i.not, i64 0, i64 %sub.ptr.sub.i
  %allocatedBytes_.i = getelementptr inbounds i8, ptr %this, i64 976
  %2 = load i64, ptr %allocatedBytes_.i, align 8
  %add = add i64 %cond, %2
  ret i64 %add
}